; Function Attrs: nofree nounwind sspstrong uwtable
define internal void @dir_free(ptr noundef readonly captures(none) %0) #17 {
  %2 = load ptr, ptr %0, align 8, !tbaa !54
  %.not = icmp eq ptr %2, null
  br i1 %.not, label %5, label %3

3:                                                ; preds = %1
  %4 = tail call i32 @closedir(ptr noundef nonnull %2)
  br label %5

5:                                                ; preds = %3, %1
  ret void
}